target datalayout = "e-m:e-p270:32:32-p271:32:32-p272:64:64-i64:64-i128:128-f80:128-n8:16:32:64-S128"
target triple = "x86_64-pc-linux-gnu"

@.str.40 = private unnamed_addr constant [8 x i8] c"RLERROR\00", align 1
@.str.41 = private unnamed_addr constant [9 x i8] c"RVERSION\00", align 1
@.str.42 = private unnamed_addr constant [8 x i8] c"RATTACH\00", align 1
@.str.43 = private unnamed_addr constant [6 x i8] c"RWALK\00", align 1
@.str.44 = private unnamed_addr constant [7 x i8] c"RLOPEN\00", align 1
@.str.45 = private unnamed_addr constant [7 x i8] c"RWRITE\00", align 1
@.str.46 = private unnamed_addr constant [7 x i8] c"RMKDIR\00", align 1
@.str.47 = private unnamed_addr constant [9 x i8] c"RLCREATE\00", align 1
@.str.48 = private unnamed_addr constant [9 x i8] c"RSYMLINK\00", align 1
@.str.49 = private unnamed_addr constant [9 x i8] c"RGETATTR\00", align 1
@.str.50 = private unnamed_addr constant [6 x i8] c"RLINK\00", align 1
@.str.51 = private unnamed_addr constant [10 x i8] c"RUNLINKAT\00", align 1
@.str.52 = private unnamed_addr constant [7 x i8] c"RFLUSH\00", align 1
@.str.53 = private unnamed_addr constant [9 x i8] c"RREADDIR\00", align 1
@.str.54 = private unnamed_addr constant [10 x i8] c"<unknown>\00", align 1

; Function Attrs: nounwind sspstrong uwtable
define internal ptr @rmessage_name(i8 noundef zeroext %0) #0 {
  %2 = alloca i8, align 1
  store i8 %0, ptr %2, align 1
  %3 = load i8, ptr %2, align 1
  %4 = zext i8 %3 to i32
  %5 = icmp eq i32 %4, 7
  br i1 %5, label %6, label %7

6:                                                ; preds = %1
  br label %96

7:                                                ; preds = %1
  %8 = load i8, ptr %2, align 1
  %9 = zext i8 %8 to i32
  %10 = icmp eq i32 %9, 101
  br i1 %10, label %11, label %12

11:                                               ; preds = %7
  br label %94

12:                                               ; preds = %7
  %13 = load i8, ptr %2, align 1
  %14 = zext i8 %13 to i32
  %15 = icmp eq i32 %14, 105
  br i1 %15, label %16, label %17

16:                                               ; preds = %12
  br label %92

17:                                               ; preds = %12
  %18 = load i8, ptr %2, align 1
  %19 = zext i8 %18 to i32
  %20 = icmp eq i32 %19, 111
  br i1 %20, label %21, label %22

21:                                               ; preds = %17
  br label %90

22:                                               ; preds = %17
  %23 = load i8, ptr %2, align 1
  %24 = zext i8 %23 to i32
  %25 = icmp eq i32 %24, 13
  br i1 %25, label %26, label %27

26:                                               ; preds = %22
  br label %88

27:                                               ; preds = %22
  %28 = load i8, ptr %2, align 1
  %29 = zext i8 %28 to i32
  %30 = icmp eq i32 %29, 119
  br i1 %30, label %31, label %32

31:                                               ; preds = %27
  br label %86

32:                                               ; preds = %27
  %33 = load i8, ptr %2, align 1
  %34 = zext i8 %33 to i32
  %35 = icmp eq i32 %34, 73
  br i1 %35, label %36, label %37

36:                                               ; preds = %32
  br label %84

37:                                               ; preds = %32
  %38 = load i8, ptr %2, align 1
  %39 = zext i8 %38 to i32
  %40 = icmp eq i32 %39, 15
  br i1 %40, label %41, label %42

41:                                               ; preds = %37
  br label %82

42:                                               ; preds = %37
  %43 = load i8, ptr %2, align 1
  %44 = zext i8 %43 to i32
  %45 = icmp eq i32 %44, 17
  br i1 %45, label %46, label %47

46:                                               ; preds = %42
  br label %80

47:                                               ; preds = %42
  %48 = load i8, ptr %2, align 1
  %49 = zext i8 %48 to i32
  %50 = icmp eq i32 %49, 25
  br i1 %50, label %51, label %52

51:                                               ; preds = %47
  br label %78

52:                                               ; preds = %47
  %53 = load i8, ptr %2, align 1
  %54 = zext i8 %53 to i32
  %55 = icmp eq i32 %54, 71
  br i1 %55, label %56, label %57

56:                                               ; preds = %52
  br label %76

57:                                               ; preds = %52
  %58 = load i8, ptr %2, align 1
  %59 = zext i8 %58 to i32
  %60 = icmp eq i32 %59, 77
  br i1 %60, label %61, label %62

61:                                               ; preds = %57
  br label %74

62:                                               ; preds = %57
  %63 = load i8, ptr %2, align 1
  %64 = zext i8 %63 to i32
  %65 = icmp eq i32 %64, 109
  br i1 %65, label %66, label %67

66:                                               ; preds = %62
  br label %72

67:                                               ; preds = %62
  %68 = load i8, ptr %2, align 1
  %69 = zext i8 %68 to i32
  %70 = icmp eq i32 %69, 41
  %71 = select i1 %70, ptr @.str.53, ptr @.str.54
  br label %72

72:                                               ; preds = %67, %66
  %73 = phi ptr [ @.str.52, %66 ], [ %71, %67 ]
  br label %74

74:                                               ; preds = %72, %61
  %75 = phi ptr [ @.str.51, %61 ], [ %73, %72 ]
  br label %76

76:                                               ; preds = %74, %56
  %77 = phi ptr [ @.str.50, %56 ], [ %75, %74 ]
  br label %78

78:                                               ; preds = %76, %51
  %79 = phi ptr [ @.str.49, %51 ], [ %77, %76 ]
  br label %80

80:                                               ; preds = %78, %46
  %81 = phi ptr [ @.str.48, %46 ], [ %79, %78 ]
  br label %82

82:                                               ; preds = %80, %41
  %83 = phi ptr [ @.str.47, %41 ], [ %81, %80 ]
  br label %84

84:                                               ; preds = %82, %36
  %85 = phi ptr [ @.str.46, %36 ], [ %83, %82 ]
  br label %86

86:                                               ; preds = %84, %31
  %87 = phi ptr [ @.str.45, %31 ], [ %85, %84 ]
  br label %88

88:                                               ; preds = %86, %26
  %89 = phi ptr [ @.str.44, %26 ], [ %87, %86 ]
  br label %90

90:                                               ; preds = %88, %21
  %91 = phi ptr [ @.str.43, %21 ], [ %89, %88 ]
  br label %92

92:                                               ; preds = %90, %16
  %93 = phi ptr [ @.str.42, %16 ], [ %91, %90 ]
  br label %94

94:                                               ; preds = %92, %11
  %95 = phi ptr [ @.str.41, %11 ], [ %93, %92 ]
  br label %96

96:                                               ; preds = %94, %6
  %97 = phi ptr [ @.str.40, %6 ], [ %95, %94 ]
  ret ptr %97
}