; Function Attrs: mustprogress nofree norecurse nosync nounwind sspstrong willreturn memory(none) uwtable
define internal fastcc noundef nonnull ptr @rmessage_name(i8 noundef zeroext %0) unnamed_addr #9 {
  switch i8 %0, label %2 [
    i8 7, label %7
    i8 101, label %.fold.split
    i8 105, label %.fold.split14
    i8 111, label %.fold.split15
    i8 13, label %.fold.split16
    i8 119, label %.fold.split17
    i8 73, label %.fold.split18
    i8 15, label %.fold.split19
    i8 17, label %.fold.split20
    i8 25, label %.fold.split21
    i8 71, label %.fold.split22
    i8 77, label %.fold.split23
  ]

2:                                                ; preds = %1
  %3 = icmp eq i8 %0, 109
  %4 = icmp eq i8 %0, 41
  %5 = select i1 %4, ptr @.str.53, ptr @.str.54
  %6 = select i1 %3, ptr @.str.52, ptr %5
  br label %7

.fold.split:                                      ; preds = %1
  br label %7

.fold.split14:                                    ; preds = %1
  br label %7

.fold.split15:                                    ; preds = %1
  br label %7

.fold.split16:                                    ; preds = %1
  br label %7

.fold.split17:                                    ; preds = %1
  br label %7

.fold.split18:                                    ; preds = %1
  br label %7

.fold.split19:                                    ; preds = %1
  br label %7

.fold.split20:                                    ; preds = %1
  br label %7

.fold.split21:                                    ; preds = %1
  br label %7

.fold.split22:                                    ; preds = %1
  br label %7

.fold.split23:                                    ; preds = %1
  br label %7

7:                                                ; preds = %1, %.fold.split23, %.fold.split22, %.fold.split21, %.fold.split20, %.fold.split19, %.fold.split18, %.fold.split17, %.fold.split16, %.fold.split15, %.fold.split14, %.fold.split, %2
  %8 = phi ptr [ @.str.40, %1 ], [ %6, %2 ], [ @.str.41, %.fold.split ], [ @.str.42, %.fold.split14 ], [ @.str.43, %.fold.split15 ], [ @.str.44, %.fold.split16 ], [ @.str.45, %.fold.split17 ], [ @.str.46, %.fold.split18 ], [ @.str.47, %.fold.split19 ], [ @.str.48, %.fold.split20 ], [ @.str.49, %.fold.split21 ], [ @.str.50, %.fold.split22 ], [ @.str.51, %.fold.split23 ]
  ret ptr %8
}